; Function Attrs: nounwind uwtable
define i64 @bufferevent_get_max_to_write(ptr noundef %0) local_unnamed_addr #3 {
  %2 = getelementptr inbounds nuw i8, ptr %0, i64 448
  %3 = load ptr, ptr %2, align 8
  %.not = icmp eq ptr %3, null
  br i1 %.not, label %7, label %4

4:                                                ; preds = %1
  %5 = load ptr, ptr getelementptr inbounds nuw (i8, ptr @evthread_lock_fns_, i64 24), align 8
  %6 = tail call i32 %5(i32 noundef 0, ptr noundef nonnull %3) #10
  br label %7

7:                                                ; preds = %4, %1
  %8 = tail call fastcc i64 @bufferevent_get_rlim_max_(ptr noundef nonnull %0, i32 noundef 1)
  %9 = load ptr, ptr %2, align 8
  %.not8 = icmp eq ptr %9, null
  br i1 %.not8, label %13, label %10

10:                                               ; preds = %7
  %11 = load ptr, ptr getelementptr inbounds nuw (i8, ptr @evthread_lock_fns_, i64 32), align 8
  %12 = tail call i32 %11(i32 noundef 0, ptr noundef nonnull %9) #10
  br label %13

13:                                               ; preds = %10, %7
  ret i64 %8
}